(dp0
I0
I0
sI1
I1
sI2
I2
sI3
I3
sI4
I4
sI5
I6
sI6
I5
sI7
I7
sI8
I8
sI9
I9
sI10
I10
sI11
I11
sI12
I12
sI13
I13
sI14
I14
sI15
I15
sI16
I16
sI17
I17
sI18
I18
sI19
I19
sI20
I20
sI21
I21
sI22
I22
sI23
I23
sI24
I24
sI25
I25
sI26
I26
sI27
I27
sI28
I28
sI29
I29
sI30
I30
sI31
I31
sI32
I32
sI33
I33
sI34
I34
sI35
I35
sI36
I36
sI37
I37
sI38
I38
sI39
I39
sI40
I40
sI41
I41
sI42
I42
sI43
I43
sI44
I44
sI45
I45
sI46
I46
sI47
I47
sI48
I48
sI49
I49
sI50
I50
sI51
I51
sI52
I52
sI53
I53
sI54
I54
sI55
I55
sI56
I56
sI57
I57
sI58
I58
sI59
I59
sI60
I60
sI61
I61
sI62
I62
sI63
I63
sI64
I65
sI65
I64
sI66
I66
sI67
I67
sI68
I68
sI69
I69
sI70
I70
sI71
I71
sI72
I72
sI73
I73
sI74
I74
sI75
I75
sI76
I76
sI77
I77
sI78
I78
sI79
I79
sI80
I80
sI81
I81
sI82
I82
sI83
I83
sI84
I84
sI85
I85
sI86
I86
sI87
I87
sI88
I88
sI89
I89
sI90
I90
sI91
I91
sI92
I93
sI93
I92
sI94
I94
sI95
I95
sI96
I96
sI97
I97
sI98
I98
sI99
I99
sI100
I100
sI101
I101
sI102
I102
sI103
I103
sI104
I104
sI105
I105
sI106
I106
sI107
I107
sI108
I108
sI109
I109
sI110
I110
sI111
I111
sI112
I112
sI113
I113
sI114
I114
sI115
I115
sI116
I116
sI117
I117
sI118
I118
sI119
I119
sI120
I120
s.